; Function Attrs: nounwind uwtable
define ptr @l_Lean_Elab_Tactic_BVDecide_Frontend_Normalize_bvAcNfpost___lambda__4(ptr noundef %0, ptr noundef %1, ptr noundef %2, ptr noundef %3, ptr noundef %4, ptr noundef %5, ptr noundef %6, ptr noundef %7, ptr noundef %8, ptr noundef %9, ptr noundef %10, ptr noundef %11) #0 {
  %13 = load ptr, ptr @l_Lean_Elab_Tactic_BVDecide_Frontend_Normalize_VarStateM_computeCoefficients_go___closed__4, align 8, !tbaa !4
  %14 = tail call ptr @l_Lean_isTracingEnabledFor___at_Lean_Meta_Simp_congrArgs___spec__1(ptr noundef %13, ptr noundef %4, ptr noundef %5, ptr noundef %6, ptr noundef %7, ptr noundef %8, ptr noundef %9, ptr noundef %10, ptr noundef %11) #5
  %15 = getelementptr inbounds nuw i8, ptr %14, i64 8
  %16 = load ptr, ptr %15, align 8, !tbaa !4
  %17 = ptrtoint ptr %16 to i64
  %18 = and i64 %17, 1
  %.not = icmp eq i64 %18, 0
  br i1 %.not, label %19, label %lean_dec.exit71

19:                                               ; preds = %12
  %.val.i = load i32, ptr %16, align 4, !tbaa !8
  %20 = icmp sgt i32 %.val.i, 0
  br i1 %20, label %21, label %23, !prof !11

21:                                               ; preds = %19
  %22 = add nuw i32 %.val.i, 1
  store i32 %22, ptr %16, align 4, !tbaa !8
  br label %25

23:                                               ; preds = %19
  %.not.i80 = icmp eq i32 %.val.i, 0
  br i1 %.not.i80, label %lean_dec.exit71, label %24

24:                                               ; preds = %23
  tail call void @lean_inc_ref_cold(ptr noundef nonnull %16) #5
  %.pr = load i32, ptr %16, align 4, !tbaa !8
  br label %25

25:                                               ; preds = %24, %21
  %26 = phi i32 [ %.pr, %24 ], [ %22, %21 ]
  %27 = icmp sgt i32 %26, 1
  br i1 %27, label %28, label %30, !prof !20

28:                                               ; preds = %25
  %29 = add nsw i32 %26, -1
  store i32 %29, ptr %16, align 4, !tbaa !8
  br label %lean_dec.exit71

30:                                               ; preds = %25
  %.not.i = icmp eq i32 %26, 0
  br i1 %.not.i, label %lean_dec.exit71, label %31

31:                                               ; preds = %30
  tail call void @lean_dec_ref_cold(ptr noundef nonnull %16) #5
  br label %lean_dec.exit71

lean_dec.exit71:                                  ; preds = %12, %23, %31, %30, %28
  %32 = and i64 %17, 510
  %33 = icmp eq i64 %32, 0
  %34 = getelementptr inbounds nuw i8, ptr %14, i64 16
  %35 = load ptr, ptr %34, align 8, !tbaa !4
  %36 = ptrtoint ptr %35 to i64
  %37 = and i64 %36, 1
  %.not100 = icmp eq i64 %37, 0
  br i1 %33, label %38, label %55

38:                                               ; preds = %lean_dec.exit71
  br i1 %.not100, label %39, label %lean_inc.exit66

39:                                               ; preds = %38
  %.val.i81 = load i32, ptr %35, align 4, !tbaa !8
  %40 = icmp sgt i32 %.val.i81, 0
  br i1 %40, label %41, label %43, !prof !11

41:                                               ; preds = %39
  %42 = add nuw i32 %.val.i81, 1
  store i32 %42, ptr %35, align 4, !tbaa !8
  br label %lean_inc.exit66

43:                                               ; preds = %39
  %.not.i82 = icmp eq i32 %.val.i81, 0
  br i1 %.not.i82, label %lean_inc.exit66, label %44

44:                                               ; preds = %43
  tail call void @lean_inc_ref_cold(ptr noundef nonnull %35) #5
  br label %lean_inc.exit66

lean_inc.exit66:                                  ; preds = %44, %43, %41, %38
  %45 = ptrtoint ptr %14 to i64
  %46 = and i64 %45, 1
  %.not101 = icmp eq i64 %46, 0
  br i1 %.not101, label %47, label %lean_dec.exit70

47:                                               ; preds = %lean_inc.exit66
  %48 = load i32, ptr %14, align 4, !tbaa !8
  %49 = icmp sgt i32 %48, 1
  br i1 %49, label %50, label %52, !prof !11

50:                                               ; preds = %47
  %51 = add nsw i32 %48, -1
  store i32 %51, ptr %14, align 4, !tbaa !8
  br label %lean_dec.exit70

52:                                               ; preds = %47
  %.not.i72 = icmp eq i32 %48, 0
  br i1 %.not.i72, label %lean_dec.exit70, label %53

53:                                               ; preds = %52
  tail call void @lean_dec_ref_cold(ptr noundef nonnull %14) #5
  br label %lean_dec.exit70

lean_dec.exit70:                                  ; preds = %53, %52, %50, %lean_inc.exit66
  %54 = tail call ptr @l_Lean_Elab_Tactic_BVDecide_Frontend_Normalize_bvAcNfpost___lambda__3(ptr noundef %0, ptr noundef %1, ptr noundef %2, ptr noundef %3, ptr nonnull poison, ptr noundef %4, ptr noundef %5, ptr noundef %6, ptr noundef %7, ptr noundef %8, ptr noundef %9, ptr noundef %10, ptr noundef %35)
  br label %lean_dec.exit

55:                                               ; preds = %lean_dec.exit71
  br i1 %.not100, label %56, label %lean_inc.exit65

56:                                               ; preds = %55
  %.val.i84 = load i32, ptr %35, align 4, !tbaa !8
  %57 = icmp sgt i32 %.val.i84, 0
  br i1 %57, label %58, label %60, !prof !11

58:                                               ; preds = %56
  %59 = add nuw i32 %.val.i84, 1
  store i32 %59, ptr %35, align 4, !tbaa !8
  br label %lean_inc.exit65

60:                                               ; preds = %56
  %.not.i85 = icmp eq i32 %.val.i84, 0
  br i1 %.not.i85, label %lean_inc.exit65, label %61

61:                                               ; preds = %60
  tail call void @lean_inc_ref_cold(ptr noundef nonnull %35) #5
  br label %lean_inc.exit65

lean_inc.exit65:                                  ; preds = %61, %60, %58, %55
  %62 = ptrtoint ptr %14 to i64
  %63 = and i64 %62, 1
  %.not96 = icmp eq i64 %63, 0
  br i1 %.not96, label %64, label %lean_dec.exit69

64:                                               ; preds = %lean_inc.exit65
  %65 = load i32, ptr %14, align 4, !tbaa !8
  %66 = icmp sgt i32 %65, 1
  br i1 %66, label %67, label %69, !prof !11

67:                                               ; preds = %64
  %68 = add nsw i32 %65, -1
  store i32 %68, ptr %14, align 4, !tbaa !8
  br label %lean_dec.exit69

69:                                               ; preds = %64
  %.not.i74 = icmp eq i32 %65, 0
  br i1 %.not.i74, label %lean_dec.exit69, label %70

70:                                               ; preds = %69
  tail call void @lean_dec_ref_cold(ptr noundef nonnull %14) #5
  br label %lean_dec.exit69

lean_dec.exit69:                                  ; preds = %70, %69, %67, %lean_inc.exit65
  %71 = load ptr, ptr @l_Lean_Elab_Tactic_BVDecide_Frontend_Normalize_bvAcNfpost___lambda__4___closed__3, align 8, !tbaa !4
  %72 = tail call ptr @l_Lean_addTrace___at_Lean_Meta_Simp_congrArgs___spec__2(ptr noundef %13, ptr noundef %71, ptr noundef %4, ptr noundef %5, ptr noundef %6, ptr noundef %7, ptr noundef %8, ptr noundef %9, ptr noundef %10, ptr noundef %35) #5
  %73 = getelementptr inbounds nuw i8, ptr %72, i64 8
  %74 = load ptr, ptr %73, align 8, !tbaa !4
  %75 = ptrtoint ptr %74 to i64
  %76 = and i64 %75, 1
  %.not97 = icmp eq i64 %76, 0
  br i1 %.not97, label %77, label %lean_inc.exit64

77:                                               ; preds = %lean_dec.exit69
  %.val.i87 = load i32, ptr %74, align 4, !tbaa !8
  %78 = icmp sgt i32 %.val.i87, 0
  br i1 %78, label %79, label %81, !prof !11

79:                                               ; preds = %77
  %80 = add nuw i32 %.val.i87, 1
  store i32 %80, ptr %74, align 4, !tbaa !8
  br label %lean_inc.exit64

81:                                               ; preds = %77
  %.not.i88 = icmp eq i32 %.val.i87, 0
  br i1 %.not.i88, label %lean_inc.exit64, label %82

82:                                               ; preds = %81
  tail call void @lean_inc_ref_cold(ptr noundef nonnull %74) #5
  br label %lean_inc.exit64

lean_inc.exit64:                                  ; preds = %82, %81, %79, %lean_dec.exit69
  %83 = getelementptr inbounds nuw i8, ptr %72, i64 16
  %84 = load ptr, ptr %83, align 8, !tbaa !4
  %85 = ptrtoint ptr %84 to i64
  %86 = and i64 %85, 1
  %.not98 = icmp eq i64 %86, 0
  br i1 %.not98, label %87, label %lean_inc.exit

87:                                               ; preds = %lean_inc.exit64
  %.val.i90 = load i32, ptr %84, align 4, !tbaa !8
  %88 = icmp sgt i32 %.val.i90, 0
  br i1 %88, label %89, label %91, !prof !11

89:                                               ; preds = %87
  %90 = add nuw i32 %.val.i90, 1
  store i32 %90, ptr %84, align 4, !tbaa !8
  br label %lean_inc.exit

91:                                               ; preds = %87
  %.not.i91 = icmp eq i32 %.val.i90, 0
  br i1 %.not.i91, label %lean_inc.exit, label %92

92:                                               ; preds = %91
  tail call void @lean_inc_ref_cold(ptr noundef nonnull %84) #5
  br label %lean_inc.exit

lean_inc.exit:                                    ; preds = %92, %91, %89, %lean_inc.exit64
  %93 = ptrtoint ptr %72 to i64
  %94 = and i64 %93, 1
  %.not99 = icmp eq i64 %94, 0
  br i1 %.not99, label %95, label %lean_dec.exit68

95:                                               ; preds = %lean_inc.exit
  %96 = load i32, ptr %72, align 4, !tbaa !8
  %97 = icmp sgt i32 %96, 1
  br i1 %97, label %98, label %100, !prof !11

98:                                               ; preds = %95
  %99 = add nsw i32 %96, -1
  store i32 %99, ptr %72, align 4, !tbaa !8
  br label %lean_dec.exit68

100:                                              ; preds = %95
  %.not.i76 = icmp eq i32 %96, 0
  br i1 %.not.i76, label %lean_dec.exit68, label %101

101:                                              ; preds = %100
  tail call void @lean_dec_ref_cold(ptr noundef nonnull %72) #5
  br label %lean_dec.exit68

lean_dec.exit68:                                  ; preds = %101, %100, %98, %lean_inc.exit
  %102 = tail call ptr @l_Lean_Elab_Tactic_BVDecide_Frontend_Normalize_bvAcNfpost___lambda__3(ptr noundef %0, ptr noundef %1, ptr noundef %2, ptr noundef %3, ptr poison, ptr noundef %4, ptr noundef %5, ptr noundef %6, ptr noundef %7, ptr noundef %8, ptr noundef %9, ptr noundef %10, ptr noundef %84)
  br i1 %.not97, label %103, label %lean_dec.exit

103:                                              ; preds = %lean_dec.exit68
  %104 = load i32, ptr %74, align 4, !tbaa !8
  %105 = icmp sgt i32 %104, 1
  br i1 %105, label %106, label %108, !prof !11

106:                                              ; preds = %103
  %107 = add nsw i32 %104, -1
  store i32 %107, ptr %74, align 4, !tbaa !8
  br label %lean_dec.exit

108:                                              ; preds = %103
  %.not.i78 = icmp eq i32 %104, 0
  br i1 %.not.i78, label %lean_dec.exit, label %109

109:                                              ; preds = %108
  tail call void @lean_dec_ref_cold(ptr noundef nonnull %74) #5
  br label %lean_dec.exit

lean_dec.exit:                                    ; preds = %lean_dec.exit68, %106, %108, %109, %lean_dec.exit70
  %.0 = phi ptr [ %54, %lean_dec.exit70 ], [ %102, %109 ], [ %102, %108 ], [ %102, %106 ], [ %102, %lean_dec.exit68 ]
  ret ptr %.0
}